	.cpu arm7tdmi
	.eabi_attribute 20, 1
	.eabi_attribute 21, 1
	.eabi_attribute 23, 3
	.eabi_attribute 24, 1
	.eabi_attribute 25, 1
	.eabi_attribute 26, 1
	.eabi_attribute 30, 2
	.eabi_attribute 34, 0
	.eabi_attribute 18, 4
	.file	"enemyManager.c"
	.text
	.align	2
	.global	initEnemies
	.arch armv4t
	.syntax unified
	.arm
	.fpu softvfp
	.type	initEnemies, %function
initEnemies:
	@ Function supports interworking.
	@ args = 0, pretend = 0, frame = 0
	@ frame_needed = 0, uses_anonymous_args = 0
	push	{r4, lr}
	ldr	r3, .L4
	mov	lr, pc
	bx	r3
	pop	{r4, lr}
	bx	lr
.L5:
	.align	2
.L4:
	.word	initBaller
	.size	initEnemies, .-initEnemies
	.align	2
	.global	updateEnemies
	.syntax unified
	.arm
	.fpu softvfp
	.type	updateEnemies, %function
updateEnemies:
	@ Function supports interworking.
	@ args = 0, pretend = 0, frame = 0
	@ frame_needed = 0, uses_anonymous_args = 0
	push	{r4, lr}
	ldr	r3, .L8
	mov	lr, pc
	bx	r3
	pop	{r4, lr}
	bx	lr
.L9:
	.align	2
.L8:
	.word	updateBallers
	.size	updateEnemies, .-updateEnemies
	.align	2
	.global	m_setBallerPos
	.syntax unified
	.arm
	.fpu softvfp
	.type	m_setBallerPos, %function
m_setBallerPos:
	@ Function supports interworking.
	@ args = 0, pretend = 0, frame = 0
	@ frame_needed = 0, uses_anonymous_args = 0
	push	{r4, lr}
	ldr	r3, .L12
	mov	lr, pc
	bx	r3
	pop	{r4, lr}
	bx	lr
.L13:
	.align	2
.L12:
	.word	setBallerPos
	.size	m_setBallerPos, .-m_setBallerPos
	.comm	ballers,480,4
	.comm	spiders,480,4
	.comm	enemy_manager,8,4
	.ident	"GCC: (devkitARM release 53) 9.1.0"
